target datalayout = "e-m:e-p270:32:32-p271:32:32-p272:64:64-i64:64-i128:128-f80:128-n8:16:32:64-S128"
target triple = "x86_64-pc-linux-gnu"

%struct._GtkTreeIter = type { i32, ptr, ptr, ptr }

; Function Attrs: nounwind uwtable
define internal void @_reset_sel_on_path(ptr noundef %0, ptr noundef %1, i32 noundef %2) #0 {
  %4 = alloca ptr, align 8
  %5 = alloca ptr, align 8
  %6 = alloca i32, align 4
  %7 = alloca %struct._GtkTreeIter, align 8
  %8 = alloca %struct._GtkTreeIter, align 8
  %9 = alloca i32, align 4
  store ptr %0, ptr %4, align 8, !tbaa !36
  store ptr %1, ptr %5, align 8, !tbaa !134
  store i32 %2, ptr %6, align 4, !tbaa !31
  call void @llvm.lifetime.start.p0(i64 32, ptr %7) #11
  call void @llvm.lifetime.start.p0(i64 32, ptr %8) #11
  %10 = load ptr, ptr %5, align 8, !tbaa !134
  call void @llvm.memcpy.p0.p0.i64(ptr align 8 %8, ptr align 8 %10, i64 32, i1 false), !tbaa.struct !50
  br label %11

11:                                               ; preds = %33, %3
  %12 = load ptr, ptr %4, align 8, !tbaa !36
  %13 = call i32 @gtk_tree_model_iter_children(ptr noundef %12, ptr noundef %7, ptr noundef %8)
  %14 = icmp ne i32 %13, 0
  br i1 %14, label %15, label %25

15:                                               ; preds = %11
  call void @llvm.lifetime.start.p0(i64 4, ptr %9) #11
  store i32 0, ptr %9, align 4, !tbaa !31
  %16 = load ptr, ptr %4, align 8, !tbaa !36
  call void (ptr, ptr, ...) @gtk_tree_model_get(ptr noundef %16, ptr noundef %8, i32 noundef 5, ptr noundef %9, i32 noundef -1)
  %17 = load i32, ptr %9, align 4, !tbaa !31
  %18 = icmp eq i32 %17, 1
  br i1 %18, label %19, label %23

19:                                               ; preds = %15
  %20 = load ptr, ptr %4, align 8, !tbaa !36
  %21 = call i64 @gtk_tree_store_get_type() #12
  %22 = call ptr @g_type_check_instance_cast(ptr noundef %20, i64 noundef %21)
  call void (ptr, ptr, ...) @gtk_tree_store_set(ptr noundef %22, ptr noundef %8, i32 noundef 5, i32 noundef 0, i32 noundef -1)
  br label %23

23:                                               ; preds = %19, %15
  %24 = load ptr, ptr %4, align 8, !tbaa !36
  call void @_reset_sel_on_path(ptr noundef %24, ptr noundef %7, i32 noundef 0)
  call void @llvm.lifetime.end.p0(i64 4, ptr %9) #11
  br label %25

25:                                               ; preds = %23, %11
  br label %26

26:                                               ; preds = %25
  %27 = load i32, ptr %6, align 4, !tbaa !31
  %28 = icmp ne i32 %27, 0
  br i1 %28, label %33, label %29

29:                                               ; preds = %26
  %30 = load ptr, ptr %4, align 8, !tbaa !36
  %31 = call i32 @gtk_tree_model_iter_next(ptr noundef %30, ptr noundef %8)
  %32 = icmp ne i32 %31, 0
  br label %33

33:                                               ; preds = %29, %26
  %34 = phi i1 [ false, %26 ], [ %32, %29 ]
  br i1 %34, label %11, label %35

35:                                               ; preds = %33
  call void @llvm.lifetime.end.p0(i64 32, ptr %8) #11
  call void @llvm.lifetime.end.p0(i64 32, ptr %7) #11
  ret void
}