; Function Attrs: nounwind uwtable
define internal fastcc void @_reset_sel_on_path(ptr noundef %0, ptr noundef nonnull readonly captures(none) %1, i32 noundef range(i32 0, 2) %2) unnamed_addr #1 {
  %4 = alloca %struct._GtkTreeIter, align 8
  %5 = alloca %struct._GtkTreeIter, align 8
  %6 = alloca i32, align 4
  call void @llvm.lifetime.start.p0(i64 32, ptr nonnull %4) #16
  call void @llvm.lifetime.start.p0(i64 32, ptr nonnull %5) #16
  call void @llvm.memcpy.p0.p0.i64(ptr noundef nonnull align 8 dereferenceable(32) %5, ptr noundef nonnull align 8 dereferenceable(32) %1, i64 32, i1 false), !tbaa.struct !45
  %.not6 = icmp eq i32 %2, 0
  br i1 %.not6, label %.split.us, label %.split

.split.us:                                        ; preds = %3, %15
  %7 = call i32 @gtk_tree_model_iter_children(ptr noundef %0, ptr noundef nonnull %4, ptr noundef nonnull %5) #16
  %.not.us = icmp eq i32 %7, 0
  br i1 %.not.us, label %15, label %8

8:                                                ; preds = %.split.us
  call void @llvm.lifetime.start.p0(i64 4, ptr nonnull %6) #16
  store i32 0, ptr %6, align 4, !tbaa !46
  call void (ptr, ptr, ...) @gtk_tree_model_get(ptr noundef %0, ptr noundef nonnull %5, i32 noundef 5, ptr noundef nonnull %6, i32 noundef -1) #16
  %9 = load i32, ptr %6, align 4, !tbaa !46
  %10 = icmp eq i32 %9, 1
  br i1 %10, label %11, label %14

11:                                               ; preds = %8
  %12 = tail call i64 @gtk_tree_store_get_type() #17
  %13 = call ptr @g_type_check_instance_cast(ptr noundef %0, i64 noundef %12) #16
  call void (ptr, ptr, ...) @gtk_tree_store_set(ptr noundef %13, ptr noundef nonnull %5, i32 noundef 5, i32 noundef 0, i32 noundef -1) #16
  br label %14

14:                                               ; preds = %11, %8
  call fastcc void @_reset_sel_on_path(ptr noundef %0, ptr noundef %4, i32 noundef 0)
  call void @llvm.lifetime.end.p0(i64 4, ptr nonnull %6) #16
  br label %15

15:                                               ; preds = %14, %.split.us
  %16 = call i32 @gtk_tree_model_iter_next(ptr noundef %0, ptr noundef nonnull %5) #16
  %.not7.us = icmp eq i32 %16, 0
  br i1 %.not7.us, label %.critedge, label %.split.us

.split:                                           ; preds = %3
  %17 = call i32 @gtk_tree_model_iter_children(ptr noundef %0, ptr noundef nonnull %4, ptr noundef nonnull %5) #16
  %.not = icmp eq i32 %17, 0
  br i1 %.not, label %.critedge, label %18

18:                                               ; preds = %.split
  call void @llvm.lifetime.start.p0(i64 4, ptr nonnull %6) #16
  store i32 0, ptr %6, align 4, !tbaa !46
  call void (ptr, ptr, ...) @gtk_tree_model_get(ptr noundef %0, ptr noundef nonnull %5, i32 noundef 5, ptr noundef nonnull %6, i32 noundef -1) #16
  %19 = load i32, ptr %6, align 4, !tbaa !46
  %20 = icmp eq i32 %19, 1
  br i1 %20, label %21, label %24

21:                                               ; preds = %18
  %22 = tail call i64 @gtk_tree_store_get_type() #17
  %23 = call ptr @g_type_check_instance_cast(ptr noundef %0, i64 noundef %22) #16
  call void (ptr, ptr, ...) @gtk_tree_store_set(ptr noundef %23, ptr noundef nonnull %5, i32 noundef 5, i32 noundef 0, i32 noundef -1) #16
  br label %24

24:                                               ; preds = %21, %18
  call fastcc void @_reset_sel_on_path(ptr noundef %0, ptr noundef %4, i32 noundef 0)
  call void @llvm.lifetime.end.p0(i64 4, ptr nonnull %6) #16
  br label %.critedge

.critedge:                                        ; preds = %15, %.split, %24
  call void @llvm.lifetime.end.p0(i64 32, ptr nonnull %5) #16
  call void @llvm.lifetime.end.p0(i64 32, ptr nonnull %4) #16
  ret void
}